target datalayout = "e-m:e-p270:32:32-p271:32:32-p272:64:64-i64:64-i128:128-f80:128-n8:16:32:64-S128"
target triple = "x86_64-pc-linux-gnu"

%struct.git_hash_algo = type { ptr, i32, i64, i64, i64, ptr, ptr, ptr, ptr, ptr, ptr, ptr, ptr, ptr }

; Function Attrs: nounwind uwtable
define dso_local i32 @hash_algo_by_id(i32 noundef %0) #0 {
  %2 = alloca i32, align 4
  %3 = alloca i32, align 4
  %4 = alloca i32, align 4
  %5 = alloca i32, align 4
  store i32 %0, ptr %3, align 4, !tbaa !43
  call void @llvm.lifetime.start.p0(i64 4, ptr %4) #14
  store i32 1, ptr %4, align 4, !tbaa !43
  br label %6

6:                                                ; preds = %20, %1
  %7 = load i32, ptr %4, align 4, !tbaa !43
  %8 = icmp slt i32 %7, 3
  br i1 %8, label %9, label %23

9:                                                ; preds = %6
  %10 = load i32, ptr %3, align 4, !tbaa !43
  %11 = load i32, ptr %4, align 4, !tbaa !43
  %12 = sext i32 %11 to i64
  %13 = getelementptr inbounds [3 x %struct.git_hash_algo], ptr @hash_algos, i64 0, i64 %12
  %14 = getelementptr inbounds nuw %struct.git_hash_algo, ptr %13, i32 0, i32 1
  %15 = load i32, ptr %14, align 8, !tbaa !47
  %16 = icmp eq i32 %10, %15
  br i1 %16, label %17, label %19

17:                                               ; preds = %9
  %18 = load i32, ptr %4, align 4, !tbaa !43
  store i32 %18, ptr %2, align 4
  store i32 1, ptr %5, align 4
  br label %24

19:                                               ; preds = %9
  br label %20

20:                                               ; preds = %19
  %21 = load i32, ptr %4, align 4, !tbaa !43
  %22 = add nsw i32 %21, 1
  store i32 %22, ptr %4, align 4, !tbaa !43
  br label %6, !llvm.loop !48

23:                                               ; preds = %6
  store i32 0, ptr %2, align 4
  store i32 1, ptr %5, align 4
  br label %24

24:                                               ; preds = %23, %17
  call void @llvm.lifetime.end.p0(i64 4, ptr %4) #14
  %25 = load i32, ptr %2, align 4
  ret i32 %25
}