; Function Attrs: nofree norecurse nosync nounwind memory(none) uwtable
define dso_local range(i32 0, 3) i32 @hash_algo_by_id(i32 noundef %0) local_unnamed_addr #8 {
  br label %2

2:                                                ; preds = %1, %6
  %indvars.iv = phi i64 [ 1, %1 ], [ %indvars.iv.next, %6 ]
  %3 = getelementptr inbounds nuw [3 x %struct.git_hash_algo], ptr @hash_algos, i64 0, i64 %indvars.iv, i32 1
  %4 = load i32, ptr %3, align 8, !tbaa !39
  %5 = icmp eq i32 %0, %4
  br i1 %5, label %.split.loop.exit9, label %6

6:                                                ; preds = %2
  %indvars.iv.next = add nuw nsw i64 %indvars.iv, 1
  %exitcond.not = icmp eq i64 %indvars.iv.next, 3
  br i1 %exitcond.not, label %.split.loop.exit, label %2, !llvm.loop !40

.split.loop.exit9:                                ; preds = %2
  %7 = trunc nuw nsw i64 %indvars.iv to i32
  br label %.split.loop.exit

.split.loop.exit:                                 ; preds = %6, %.split.loop.exit9
  %.06 = phi i32 [ %7, %.split.loop.exit9 ], [ 0, %6 ]
  ret i32 %.06
}